target datalayout = "e-m:e-p270:32:32-p271:32:32-p272:64:64-i64:64-i128:128-f80:128-n8:16:32:64-S128"
target triple = "x86_64-pc-linux-gnu"

%"struct.llvm::ISD::ArgFlagsTy" = type { i64, i32, i32 }
%"class.std::function" = type { %"class.std::_Function_base", ptr }
%"class.std::_Function_base" = type { %"union.std::_Any_data", ptr }
%"union.std::_Any_data" = type { %"union.std::_Nocopy_types" }
%"union.std::_Nocopy_types" = type { { i64, i64 } }
%class.anon.0 = type { ptr }

; Function Attrs: mustprogress nounwind uwtable
define linkonce_odr hidden noundef ptr @_ZNSt9_Any_data9_M_accessEv(ptr noundef nonnull align 8 dereferenceable(16) %0) #0 comdat align 2 {
  %2 = alloca ptr, align 8
  store ptr %0, ptr %2, align 8
  %3 = load ptr, ptr %2, align 8
  %4 = getelementptr inbounds [16 x i8], ptr %3, i64 0, i64 0
  ret ptr %4
}

; Function Attrs: mustprogress nounwind uwtable
define internal void @"_ZNSt14_Function_base13_Base_managerIZNK4llvm12CallLowering22getAttributesForReturnERKNS1_8CallBaseEE3$_0E9_M_createIS6_EEvRSt9_Any_dataOT_St17integral_constantIbLb1EE"(ptr noundef nonnull align 8 dereferenceable(16) %0, ptr noundef nonnull align 8 dereferenceable(8) %1) #0 align 2 {
  %3 = alloca ptr, align 8
  %4 = alloca ptr, align 8
  store ptr %0, ptr %3, align 8
  store ptr %1, ptr %4, align 8
  %5 = load ptr, ptr %3, align 8
  %6 = call noundef ptr @_ZNSt9_Any_data9_M_accessEv(ptr noundef nonnull align 8 dereferenceable(16) %5) #13
  %7 = load ptr, ptr %4, align 8
  call void @llvm.memcpy.p0.p0.i64(ptr align 8 %6, ptr align 8 %7, i64 8, i1 false)
  ret void
}

; Function Attrs: mustprogress nounwind uwtable
define linkonce_odr hidden void @_ZNSt14_Function_baseD2Ev(ptr noundef nonnull align 8 dereferenceable(24) %0) unnamed_addr #0 comdat align 2 {
  %2 = alloca ptr, align 8
  store ptr %0, ptr %2, align 8
  %3 = load ptr, ptr %2, align 8
  %4 = getelementptr inbounds nuw %"class.std::_Function_base", ptr %3, i32 0, i32 1
  %5 = load ptr, ptr %4, align 8
  %6 = icmp ne ptr %5, null
  br i1 %6, label %7, label %13

7:                                                ; preds = %1
  %8 = getelementptr inbounds nuw %"class.std::_Function_base", ptr %3, i32 0, i32 1
  %9 = load ptr, ptr %8, align 8
  %10 = getelementptr inbounds nuw %"class.std::_Function_base", ptr %3, i32 0, i32 0
  %11 = getelementptr inbounds nuw %"class.std::_Function_base", ptr %3, i32 0, i32 0
  %12 = call noundef zeroext i1 %9(ptr noundef nonnull align 8 dereferenceable(16) %10, ptr noundef nonnull align 8 dereferenceable(16) %11, i32 noundef 3)
  br label %13

13:                                               ; preds = %7, %1
  ret void
}

; Function Attrs: mustprogress nounwind uwtable
define internal void @"_ZNSt14_Function_base13_Base_managerIZNK4llvm12CallLowering22getAttributesForReturnERKNS1_8CallBaseEE3$_0E15_M_init_functorIS6_EEvRSt9_Any_dataOT_"(ptr noundef nonnull align 8 dereferenceable(16) %0, ptr noundef nonnull align 8 dereferenceable(8) %1) #0 align 2 {
  %3 = alloca ptr, align 8
  %4 = alloca ptr, align 8
  store ptr %0, ptr %3, align 8
  store ptr %1, ptr %4, align 8
  %5 = load ptr, ptr %3, align 8
  %6 = load ptr, ptr %4, align 8
  call void @"_ZNSt14_Function_base13_Base_managerIZNK4llvm12CallLowering22getAttributesForReturnERKNS1_8CallBaseEE3$_0E9_M_createIS6_EEvRSt9_Any_dataOT_St17integral_constantIbLb1EE"(ptr noundef nonnull align 8 dereferenceable(16) %5, ptr noundef nonnull align 8 dereferenceable(8) %6)
  ret void
}

; Function Attrs: mustprogress nounwind uwtable
define internal noundef zeroext i1 @"_ZNSt14_Function_base13_Base_managerIZNK4llvm12CallLowering22getAttributesForReturnERKNS1_8CallBaseEE3$_0E21_M_not_empty_functionIS6_EEbRKT_"(ptr noundef nonnull align 8 dereferenceable(8) %0) #0 align 2 {
  %2 = alloca ptr, align 8
  store ptr %0, ptr %2, align 8
  ret i1 true
}

; Function Attrs: mustprogress nounwind uwtable
define linkonce_odr hidden void @_ZNSt14_Function_baseC2Ev(ptr noundef nonnull align 8 dereferenceable(24) %0) unnamed_addr #0 comdat align 2 {
  %2 = alloca ptr, align 8
  store ptr %0, ptr %2, align 8
  %3 = load ptr, ptr %2, align 8
  %4 = getelementptr inbounds nuw %"class.std::_Function_base", ptr %3, i32 0, i32 0
  store ptr null, ptr %4, align 8
  %5 = getelementptr inbounds nuw %"class.std::_Function_base", ptr %3, i32 0, i32 1
  store ptr null, ptr %5, align 8
  ret void
}

; Function Attrs: mustprogress nounwind uwtable
define linkonce_odr hidden void @_ZNSt8functionIFbN4llvm9Attribute8AttrKindEEED2Ev(ptr noundef nonnull align 8 dereferenceable(32) %0) unnamed_addr #0 comdat align 2 {
  %2 = alloca ptr, align 8
  store ptr %0, ptr %2, align 8
  %3 = load ptr, ptr %2, align 8
  call void @_ZNSt14_Function_baseD2Ev(ptr noundef nonnull align 8 dereferenceable(24) %3) #13
  ret void
}

; Function Attrs: mustprogress nounwind uwtable
define internal void @"_ZNSt8functionIFbN4llvm9Attribute8AttrKindEEEC2IZNKS0_12CallLowering22getAttributesForReturnERKNS0_8CallBaseEE3$_0vEEOT_"(ptr noundef nonnull align 8 dereferenceable(32) %0, ptr noundef nonnull align 8 dereferenceable(8) %1) unnamed_addr #0 align 2 {
  %3 = alloca ptr, align 8
  %4 = alloca ptr, align 8
  store ptr %0, ptr %3, align 8
  store ptr %1, ptr %4, align 8
  %5 = load ptr, ptr %3, align 8
  %6 = getelementptr inbounds i8, ptr %5, i64 0
  call void @llvm.memset.p0.i64(ptr align 8 %6, i8 0, i64 24, i1 false)
  call void @_ZNSt14_Function_baseC2Ev(ptr noundef nonnull align 8 dereferenceable(24) %5) #13
  %7 = getelementptr inbounds nuw %"class.std::function", ptr %5, i32 0, i32 1
  store ptr null, ptr %7, align 8
  %8 = load ptr, ptr %4, align 8
  %9 = call noundef zeroext i1 @"_ZNSt14_Function_base13_Base_managerIZNK4llvm12CallLowering22getAttributesForReturnERKNS1_8CallBaseEE3$_0E21_M_not_empty_functionIS6_EEbRKT_"(ptr noundef nonnull align 8 dereferenceable(8) %8) #13
  br i1 %9, label %10, label %15

10:                                               ; preds = %2
  %11 = getelementptr inbounds nuw %"class.std::_Function_base", ptr %5, i32 0, i32 0
  %12 = load ptr, ptr %4, align 8
  call void @"_ZNSt14_Function_base13_Base_managerIZNK4llvm12CallLowering22getAttributesForReturnERKNS1_8CallBaseEE3$_0E15_M_init_functorIS6_EEvRSt9_Any_dataOT_"(ptr noundef nonnull align 8 dereferenceable(16) %11, ptr noundef nonnull align 8 dereferenceable(8) %12) #13
  %13 = getelementptr inbounds nuw %"class.std::function", ptr %5, i32 0, i32 1
  store ptr @"_ZNSt17_Function_handlerIFbN4llvm9Attribute8AttrKindEEZNKS0_12CallLowering22getAttributesForReturnERKNS0_8CallBaseEE3$_0E9_M_invokeERKSt9_Any_dataOS2_", ptr %13, align 8
  %14 = getelementptr inbounds nuw %"class.std::_Function_base", ptr %5, i32 0, i32 1
  store ptr @"_ZNSt17_Function_handlerIFbN4llvm9Attribute8AttrKindEEZNKS0_12CallLowering22getAttributesForReturnERKNS0_8CallBaseEE3$_0E10_M_managerERSt9_Any_dataRKSA_St18_Manager_operation", ptr %14, align 8
  br label %15

15:                                               ; preds = %10, %2
  ret void
}

; Function Attrs: mustprogress nounwind uwtable
define linkonce_odr hidden void @_ZN4llvm3ISD10ArgFlagsTyC2Ev(ptr noundef nonnull align 4 dereferenceable(16) %0) unnamed_addr #0 comdat align 2 {
  %2 = alloca ptr, align 8
  store ptr %0, ptr %2, align 8
  %3 = load ptr, ptr %2, align 8
  %4 = load i64, ptr %3, align 4
  %5 = and i64 %4, -2
  %6 = or i64 %5, 0
  store i64 %6, ptr %3, align 4
  %7 = load i64, ptr %3, align 4
  %8 = and i64 %7, -3
  %9 = or i64 %8, 0
  store i64 %9, ptr %3, align 4
  %10 = load i64, ptr %3, align 4
  %11 = and i64 %10, -5
  %12 = or i64 %11, 0
  store i64 %12, ptr %3, align 4
  %13 = load i64, ptr %3, align 4
  %14 = and i64 %13, -9
  %15 = or i64 %14, 0
  store i64 %15, ptr %3, align 4
  %16 = load i64, ptr %3, align 4
  %17 = and i64 %16, -17
  %18 = or i64 %17, 0
  store i64 %18, ptr %3, align 4
  %19 = load i64, ptr %3, align 4
  %20 = and i64 %19, -33
  %21 = or i64 %20, 0
  store i64 %21, ptr %3, align 4
  %22 = load i64, ptr %3, align 4
  %23 = and i64 %22, -65
  %24 = or i64 %23, 0
  store i64 %24, ptr %3, align 4
  %25 = load i64, ptr %3, align 4
  %26 = and i64 %25, -129
  %27 = or i64 %26, 0
  store i64 %27, ptr %3, align 4
  %28 = load i64, ptr %3, align 4
  %29 = and i64 %28, -257
  %30 = or i64 %29, 0
  store i64 %30, ptr %3, align 4
  %31 = load i64, ptr %3, align 4
  %32 = and i64 %31, -513
  %33 = or i64 %32, 0
  store i64 %33, ptr %3, align 4
  %34 = load i64, ptr %3, align 4
  %35 = and i64 %34, -1025
  %36 = or i64 %35, 0
  store i64 %36, ptr %3, align 4
  %37 = load i64, ptr %3, align 4
  %38 = and i64 %37, -2049
  %39 = or i64 %38, 0
  store i64 %39, ptr %3, align 4
  %40 = load i64, ptr %3, align 4
  %41 = and i64 %40, -4097
  %42 = or i64 %41, 0
  store i64 %42, ptr %3, align 4
  %43 = load i64, ptr %3, align 4
  %44 = and i64 %43, -8193
  %45 = or i64 %44, 0
  store i64 %45, ptr %3, align 4
  %46 = load i64, ptr %3, align 4
  %47 = and i64 %46, -16385
  %48 = or i64 %47, 0
  store i64 %48, ptr %3, align 4
  %49 = load i64, ptr %3, align 4
  %50 = and i64 %49, -32769
  %51 = or i64 %50, 0
  store i64 %51, ptr %3, align 4
  %52 = load i64, ptr %3, align 4
  %53 = and i64 %52, -65537
  %54 = or i64 %53, 0
  store i64 %54, ptr %3, align 4
  %55 = load i64, ptr %3, align 4
  %56 = and i64 %55, -131073
  %57 = or i64 %56, 0
  store i64 %57, ptr %3, align 4
  %58 = load i64, ptr %3, align 4
  %59 = and i64 %58, -262145
  %60 = or i64 %59, 0
  store i64 %60, ptr %3, align 4
  %61 = load i64, ptr %3, align 4
  %62 = and i64 %61, -33030145
  %63 = or i64 %62, 0
  store i64 %63, ptr %3, align 4
  %64 = load i64, ptr %3, align 4
  %65 = and i64 %64, -1040187393
  %66 = or i64 %65, 0
  store i64 %66, ptr %3, align 4
  %67 = load i64, ptr %3, align 4
  %68 = and i64 %67, -1073741825
  %69 = or i64 %68, 0
  store i64 %69, ptr %3, align 4
  %70 = load i64, ptr %3, align 4
  %71 = and i64 %70, -2147483649
  %72 = or i64 %71, 0
  store i64 %72, ptr %3, align 4
  %73 = load i64, ptr %3, align 4
  %74 = and i64 %73, -4294967297
  %75 = or i64 %74, 0
  store i64 %75, ptr %3, align 4
  %76 = load i64, ptr %3, align 4
  %77 = and i64 %76, -8589934593
  %78 = or i64 %77, 0
  store i64 %78, ptr %3, align 4
  %79 = getelementptr inbounds nuw %"struct.llvm::ISD::ArgFlagsTy", ptr %3, i32 0, i32 1
  store i32 0, ptr %79, align 4
  %80 = getelementptr inbounds nuw %"struct.llvm::ISD::ArgFlagsTy", ptr %3, i32 0, i32 2
  store i32 0, ptr %80, align 4
  ret void
}

; Function Attrs: mustprogress nounwind uwtable
define dso_local { i64, i64 } @_ZNK4llvm12CallLowering22getAttributesForReturnERKNS_8CallBaseE(ptr noundef nonnull align 8 dereferenceable(16) %0, ptr noundef nonnull align 8 dereferenceable(88) %1) #0 align 2 {
  %3 = alloca %"struct.llvm::ISD::ArgFlagsTy", align 4
  %4 = alloca ptr, align 8
  %5 = alloca ptr, align 8
  %6 = alloca %"class.std::function", align 8
  %7 = alloca %class.anon.0, align 8
  store ptr %0, ptr %4, align 8
  store ptr %1, ptr %5, align 8
  call void @_ZN4llvm3ISD10ArgFlagsTyC2Ev(ptr noundef nonnull align 4 dereferenceable(16) %3)
  %8 = getelementptr inbounds nuw %class.anon.0, ptr %7, i32 0, i32 0
  %9 = load ptr, ptr %5, align 8
  store ptr %9, ptr %8, align 8
  call void @"_ZNSt8functionIFbN4llvm9Attribute8AttrKindEEEC2IZNKS0_12CallLowering22getAttributesForReturnERKNS0_8CallBaseEE3$_0vEEOT_"(ptr noundef nonnull align 8 dereferenceable(32) %6, ptr noundef nonnull align 8 dereferenceable(8) %7) #13
  call void @_ZL19addFlagsUsingAttrFnRN4llvm3ISD10ArgFlagsTyERKSt8functionIFbNS_9Attribute8AttrKindEEE(ptr noundef nonnull align 4 dereferenceable(16) %3, ptr noundef nonnull align 8 dereferenceable(32) %6)
  call void @_ZNSt8functionIFbN4llvm9Attribute8AttrKindEEED2Ev(ptr noundef nonnull align 8 dereferenceable(32) %6) #13
  %10 = load { i64, i64 }, ptr %3, align 4
  ret { i64, i64 } %10
}